target datalayout = "e-m:e-p270:32:32-p271:32:32-p272:64:64-i64:64-i128:128-f80:128-n8:16:32:64-S128"
target triple = "x86_64-pc-linux-gnu"

%struct.ocb128_context = type { ptr, ptr, ptr, ptr, ptr, i64, i64, %union.OCB_BLOCK, %union.OCB_BLOCK, ptr, %struct.anon }
%union.OCB_BLOCK = type { [2 x i64] }
%struct.anon = type { i64, i64, %union.OCB_BLOCK, %union.OCB_BLOCK, %union.OCB_BLOCK, %union.OCB_BLOCK }

@.str = private unnamed_addr constant [33 x i8] c"../openssl/crypto/modes/ocb128.c\00", align 1

; Function Attrs: nounwind uwtable
define void @CRYPTO_ocb128_cleanup(ptr noundef %0) #0 {
  %2 = alloca ptr, align 8
  store ptr %0, ptr %2, align 8, !tbaa !7
  %3 = load ptr, ptr %2, align 8, !tbaa !7
  %4 = icmp ne ptr %3, null
  br i1 %4, label %5, label %14

5:                                                ; preds = %1
  %6 = load ptr, ptr %2, align 8, !tbaa !7
  %7 = getelementptr inbounds nuw %struct.ocb128_context, ptr %6, i32 0, i32 9
  %8 = load ptr, ptr %7, align 8, !tbaa !17
  %9 = load ptr, ptr %2, align 8, !tbaa !7
  %10 = getelementptr inbounds nuw %struct.ocb128_context, ptr %9, i32 0, i32 6
  %11 = load i64, ptr %10, align 8, !tbaa !16
  %12 = mul i64 %11, 16
  call void @CRYPTO_clear_free(ptr noundef %8, i64 noundef %12, ptr noundef @.str, i32 noundef 553)
  %13 = load ptr, ptr %2, align 8, !tbaa !7
  call void @OPENSSL_cleanse(ptr noundef %13, i64 noundef 176)
  br label %14

14:                                               ; preds = %5, %1
  ret void
}