; Function Attrs: nounwind uwtable
define void @CRYPTO_ocb128_cleanup(ptr noundef %0) local_unnamed_addr #0 {
  %.not = icmp eq ptr %0, null
  br i1 %.not, label %8, label %2

2:                                                ; preds = %1
  %3 = getelementptr inbounds nuw i8, ptr %0, i64 88
  %4 = load ptr, ptr %3, align 8, !tbaa !11
  %5 = getelementptr inbounds nuw i8, ptr %0, i64 48
  %6 = load i64, ptr %5, align 8, !tbaa !3
  %7 = shl i64 %6, 4
  tail call void @CRYPTO_clear_free(ptr noundef %4, i64 noundef %7, ptr noundef nonnull @.str, i32 noundef 553) #6
  tail call void @OPENSSL_cleanse(ptr noundef nonnull %0, i64 noundef 176) #6
  br label %8

8:                                                ; preds = %2, %1
  ret void
}